target datalayout = "e-m:e-p270:32:32-p271:32:32-p272:64:64-i64:64-i128:128-f80:128-n8:16:32:64-S128"
target triple = "x86_64-pc-linux-gnu"

%class.Sample_TileMesh = type <{ %class.Sample, i8, i8, [2 x i8], float, ptr, ptr, ptr, ptr, ptr, ptr, %struct.rcConfig, i32, i32, i32, float, i32, [3 x float], [3 x float], float, float, i32, [4 x i8] }>
%class.Sample = type { ptr, ptr, ptr, ptr, ptr, i8, float, float, float, float, float, float, float, float, float, float, float, float, float, i32, i8, i8, i8, ptr, [9 x ptr], ptr, %class.SampleDebugDraw }
%class.SampleDebugDraw = type { %class.DebugDrawGL }
%class.DebugDrawGL = type { %struct.duDebugDraw }
%struct.duDebugDraw = type { ptr }
%struct.rcConfig = type { i32, i32, i32, i32, float, float, [3 x float], [3 x float], float, i32, i32, i32, i32, float, i32, i32, i32, float, float }
%class.InputGeom = type { ptr, ptr, [3 x float], [3 x float], %struct.BuildSettings, i8, [1536 x float], [256 x float], [256 x i8], [256 x i8], [256 x i16], [256 x i32], i32, [256 x %struct.ConvexVolume], i32 }
%struct.BuildSettings = type { float, float, float, float, float, float, float, float, float, float, float, float, float, i32, [3 x float], [3 x float], float }
%struct.ConvexVolume = type { [36 x float], float, float, i32, i32 }

; Function Attrs: mustprogress uwtable
define dso_local void @_ZN15Sample_TileMesh7cleanupEv(ptr noundef nonnull align 8 dereferenceable(404) %0) #3 align 2 {
  %2 = alloca ptr, align 8
  store ptr %0, ptr %2, align 8
  %3 = load ptr, ptr %2, align 8
  %4 = getelementptr inbounds %class.Sample_TileMesh, ptr %3, i32 0, i32 5
  %5 = load ptr, ptr %4, align 8
  %6 = icmp eq ptr %5, null
  br i1 %6, label %8, label %7

7:                                                ; preds = %1
  call void @_ZdaPv(ptr noundef %5) #10
  br label %8

8:                                                ; preds = %7, %1
  %9 = getelementptr inbounds %class.Sample_TileMesh, ptr %3, i32 0, i32 5
  store ptr null, ptr %9, align 8
  %10 = getelementptr inbounds %class.Sample_TileMesh, ptr %3, i32 0, i32 6
  %11 = load ptr, ptr %10, align 8
  call void @_Z17rcFreeHeightFieldP13rcHeightfield(ptr noundef %11)
  %12 = getelementptr inbounds %class.Sample_TileMesh, ptr %3, i32 0, i32 6
  store ptr null, ptr %12, align 8
  %13 = getelementptr inbounds %class.Sample_TileMesh, ptr %3, i32 0, i32 7
  %14 = load ptr, ptr %13, align 8
  call void @_Z24rcFreeCompactHeightfieldP20rcCompactHeightfield(ptr noundef %14)
  %15 = getelementptr inbounds %class.Sample_TileMesh, ptr %3, i32 0, i32 7
  store ptr null, ptr %15, align 8
  %16 = getelementptr inbounds %class.Sample_TileMesh, ptr %3, i32 0, i32 8
  %17 = load ptr, ptr %16, align 8
  call void @_Z16rcFreeContourSetP12rcContourSet(ptr noundef %17)
  %18 = getelementptr inbounds %class.Sample_TileMesh, ptr %3, i32 0, i32 8
  store ptr null, ptr %18, align 8
  %19 = getelementptr inbounds %class.Sample_TileMesh, ptr %3, i32 0, i32 9
  %20 = load ptr, ptr %19, align 8
  call void @_Z14rcFreePolyMeshP10rcPolyMesh(ptr noundef %20)
  %21 = getelementptr inbounds %class.Sample_TileMesh, ptr %3, i32 0, i32 9
  store ptr null, ptr %21, align 8
  %22 = getelementptr inbounds %class.Sample_TileMesh, ptr %3, i32 0, i32 10
  %23 = load ptr, ptr %22, align 8
  call void @_Z20rcFreePolyMeshDetailP16rcPolyMeshDetail(ptr noundef %23)
  %24 = getelementptr inbounds %class.Sample_TileMesh, ptr %3, i32 0, i32 10
  store ptr null, ptr %24, align 8
  ret void
}

; Function Attrs: mustprogress nounwind uwtable
define linkonce_odr dso_local noundef ptr @_ZNK9InputGeom16getBuildSettingsEv(ptr noundef nonnull align 8 dereferenceable(50312) %0) #0 comdat align 2 {
  %2 = alloca ptr, align 8
  store ptr %0, ptr %2, align 8
  %3 = load ptr, ptr %2, align 8
  %4 = getelementptr inbounds %class.InputGeom, ptr %3, i32 0, i32 5
  %5 = load i8, ptr %4, align 4
  %6 = trunc i8 %5 to i1
  br i1 %6, label %7, label %9

7:                                                ; preds = %1
  %8 = getelementptr inbounds %class.InputGeom, ptr %3, i32 0, i32 4
  br label %10

9:                                                ; preds = %1
  br label %10

10:                                               ; preds = %9, %7
  %11 = phi ptr [ %8, %7 ], [ null, %9 ]
  ret ptr %11
}

; Function Attrs: mustprogress uwtable
define dso_local void @_ZN15Sample_TileMesh17handleMeshChangedEP9InputGeom(ptr noundef nonnull align 8 dereferenceable(404) %0, ptr noundef %1) unnamed_addr #3 align 2 {
  %3 = alloca ptr, align 8
  %4 = alloca ptr, align 8
  %5 = alloca ptr, align 8
  store ptr %0, ptr %3, align 8
  store ptr %1, ptr %4, align 8
  %6 = load ptr, ptr %3, align 8
  %7 = load ptr, ptr %4, align 8
  call void @_ZN6Sample17handleMeshChangedEP9InputGeom(ptr noundef nonnull align 8 dereferenceable(200) %6, ptr noundef %7)
  %8 = load ptr, ptr %4, align 8
  %9 = call noundef ptr @_ZNK9InputGeom16getBuildSettingsEv(ptr noundef nonnull align 8 dereferenceable(50312) %8)
  store ptr %9, ptr %5, align 8
  %10 = load ptr, ptr %5, align 8
  %11 = icmp ne ptr %10, null
  br i1 %11, label %12, label %22

12:                                               ; preds = %2
  %13 = load ptr, ptr %5, align 8
  %14 = getelementptr inbounds %struct.BuildSettings, ptr %13, i32 0, i32 16
  %15 = load float, ptr %14, align 4
  %16 = fcmp ogt float %15, 0.000000e+00
  br i1 %16, label %17, label %22

17:                                               ; preds = %12
  %18 = load ptr, ptr %5, align 8
  %19 = getelementptr inbounds %struct.BuildSettings, ptr %18, i32 0, i32 16
  %20 = load float, ptr %19, align 4
  %21 = getelementptr inbounds %class.Sample_TileMesh, ptr %6, i32 0, i32 15
  store float %20, ptr %21, align 8
  br label %22

22:                                               ; preds = %17, %12, %2
  call void @_ZN15Sample_TileMesh7cleanupEv(ptr noundef nonnull align 8 dereferenceable(404) %6)
  %23 = getelementptr inbounds %class.Sample, ptr %6, i32 0, i32 2
  %24 = load ptr, ptr %23, align 8
  call void @_Z13dtFreeNavMeshP9dtNavMesh(ptr noundef %24)
  %25 = getelementptr inbounds %class.Sample, ptr %6, i32 0, i32 2
  store ptr null, ptr %25, align 8
  %26 = getelementptr inbounds %class.Sample, ptr %6, i32 0, i32 23
  %27 = load ptr, ptr %26, align 8
  %28 = icmp ne ptr %27, null
  br i1 %28, label %29, label %40

29:                                               ; preds = %22
  %30 = getelementptr inbounds %class.Sample, ptr %6, i32 0, i32 23
  %31 = load ptr, ptr %30, align 8
  %32 = load ptr, ptr %31, align 8
  %33 = getelementptr inbounds ptr, ptr %32, i64 4
  %34 = load ptr, ptr %33, align 8
  call void %34(ptr noundef nonnull align 8 dereferenceable(8) %31)
  %35 = getelementptr inbounds %class.Sample, ptr %6, i32 0, i32 23
  %36 = load ptr, ptr %35, align 8
  %37 = load ptr, ptr %36, align 8
  %38 = getelementptr inbounds ptr, ptr %37, i64 3
  %39 = load ptr, ptr %38, align 8
  call void %39(ptr noundef nonnull align 8 dereferenceable(8) %36, ptr noundef %6)
  br label %40

40:                                               ; preds = %29, %22
  call void @_ZN6Sample15resetToolStatesEv(ptr noundef nonnull align 8 dereferenceable(200) %6)
  call void @_ZN6Sample14initToolStatesEPS_(ptr noundef nonnull align 8 dereferenceable(200) %6, ptr noundef %6)
  ret void
}