; Function Attrs: mustprogress uwtable
define dso_local void @_ZN15Sample_TileMesh17handleMeshChangedEP9InputGeom(ptr noundef nonnull align 8 dereferenceable(404) %0, ptr noundef %1) unnamed_addr #3 align 2 {
  tail call void @_ZN6Sample17handleMeshChangedEP9InputGeom(ptr noundef nonnull align 8 dereferenceable(200) %0, ptr noundef %1)
  %3 = getelementptr inbounds i8, ptr %1, i64 124
  %4 = load i8, ptr %3, align 4
  %5 = and i8 %4, 1
  %.not.i = icmp eq i8 %5, 0
  br i1 %.not.i, label %12, label %6

6:                                                ; preds = %2
  %7 = getelementptr inbounds i8, ptr %1, i64 120
  %8 = load float, ptr %7, align 4
  %9 = fcmp ogt float %8, 0.000000e+00
  br i1 %9, label %10, label %12

10:                                               ; preds = %6
  %11 = getelementptr inbounds i8, ptr %0, i64 360
  store float %8, ptr %11, align 8
  br label %12

12:                                               ; preds = %10, %6, %2
  %13 = getelementptr inbounds i8, ptr %0, i64 208
  %14 = load ptr, ptr %13, align 8
  %15 = icmp eq ptr %14, null
  br i1 %15, label %_ZN15Sample_TileMesh7cleanupEv.exit, label %16

16:                                               ; preds = %12
  tail call void @_ZdaPv(ptr noundef nonnull %14) #13
  br label %_ZN15Sample_TileMesh7cleanupEv.exit

_ZN15Sample_TileMesh7cleanupEv.exit:              ; preds = %12, %16
  store ptr null, ptr %13, align 8
  %17 = getelementptr inbounds i8, ptr %0, i64 216
  %18 = load ptr, ptr %17, align 8
  tail call void @_Z17rcFreeHeightFieldP13rcHeightfield(ptr noundef %18)
  store ptr null, ptr %17, align 8
  %19 = getelementptr inbounds i8, ptr %0, i64 224
  %20 = load ptr, ptr %19, align 8
  tail call void @_Z24rcFreeCompactHeightfieldP20rcCompactHeightfield(ptr noundef %20)
  store ptr null, ptr %19, align 8
  %21 = getelementptr inbounds i8, ptr %0, i64 232
  %22 = load ptr, ptr %21, align 8
  tail call void @_Z16rcFreeContourSetP12rcContourSet(ptr noundef %22)
  store ptr null, ptr %21, align 8
  %23 = getelementptr inbounds i8, ptr %0, i64 240
  %24 = load ptr, ptr %23, align 8
  tail call void @_Z14rcFreePolyMeshP10rcPolyMesh(ptr noundef %24)
  store ptr null, ptr %23, align 8
  %25 = getelementptr inbounds i8, ptr %0, i64 248
  %26 = load ptr, ptr %25, align 8
  tail call void @_Z20rcFreePolyMeshDetailP16rcPolyMeshDetail(ptr noundef %26)
  store ptr null, ptr %25, align 8
  %27 = getelementptr inbounds i8, ptr %0, i64 16
  %28 = load ptr, ptr %27, align 8
  tail call void @_Z13dtFreeNavMeshP9dtNavMesh(ptr noundef %28)
  store ptr null, ptr %27, align 8
  %29 = getelementptr inbounds i8, ptr %0, i64 104
  %30 = load ptr, ptr %29, align 8
  %.not8 = icmp eq ptr %30, null
  br i1 %.not8, label %39, label %31

31:                                               ; preds = %_ZN15Sample_TileMesh7cleanupEv.exit
  %32 = load ptr, ptr %30, align 8
  %33 = getelementptr inbounds i8, ptr %32, i64 32
  %34 = load ptr, ptr %33, align 8
  tail call void %34(ptr noundef nonnull align 8 dereferenceable(8) %30)
  %35 = load ptr, ptr %29, align 8
  %36 = load ptr, ptr %35, align 8
  %37 = getelementptr inbounds i8, ptr %36, i64 24
  %38 = load ptr, ptr %37, align 8
  tail call void %38(ptr noundef nonnull align 8 dereferenceable(8) %35, ptr noundef nonnull %0)
  br label %39

39:                                               ; preds = %31, %_ZN15Sample_TileMesh7cleanupEv.exit
  tail call void @_ZN6Sample15resetToolStatesEv(ptr noundef nonnull align 8 dereferenceable(200) %0)
  tail call void @_ZN6Sample14initToolStatesEPS_(ptr noundef nonnull align 8 dereferenceable(200) %0, ptr noundef nonnull %0)
  ret void
}